target datalayout = "e-m:e-p270:32:32-p271:32:32-p272:64:64-i64:64-i128:128-f80:128-n8:16:32:64-S128"
target triple = "x86_64-pc-linux-gnu"

%struct.DdNode = type { i32, i32, ptr, %union.anon, i64 }
%union.anon = type { %struct.DdChildren }
%struct.DdChildren = type { ptr, ptr }

; Function Attrs: nounwind uwtable
define internal double @ddCountPathsToNonZero(ptr noundef %0, ptr noundef %1) #0 {
  %3 = alloca double, align 8
  %4 = alloca ptr, align 8
  %5 = alloca ptr, align 8
  %6 = alloca ptr, align 8
  %7 = alloca ptr, align 8
  %8 = alloca ptr, align 8
  %9 = alloca double, align 8
  %10 = alloca ptr, align 8
  %11 = alloca double, align 8
  %12 = alloca double, align 8
  %13 = alloca ptr, align 8
  store ptr %0, ptr %4, align 8
  store ptr %1, ptr %5, align 8
  %14 = load ptr, ptr %4, align 8
  %15 = ptrtoint ptr %14 to i64
  %16 = and i64 %15, -2
  %17 = inttoptr i64 %16 to ptr
  store ptr %17, ptr %6, align 8
  %18 = load ptr, ptr %6, align 8
  %19 = getelementptr inbounds %struct.DdNode, ptr %18, i32 0, i32 0
  %20 = load i32, ptr %19, align 8
  %21 = icmp eq i32 %20, 2147483647
  br i1 %21, label %22, label %38

22:                                               ; preds = %2
  %23 = load ptr, ptr %4, align 8
  %24 = ptrtoint ptr %23 to i64
  %25 = and i64 %24, 1
  %26 = trunc i64 %25 to i32
  %27 = icmp ne i32 %26, 0
  br i1 %27, label %33, label %28

28:                                               ; preds = %22
  %29 = load ptr, ptr %6, align 8
  %30 = getelementptr inbounds %struct.DdNode, ptr %29, i32 0, i32 3
  %31 = load double, ptr %30, align 8
  %32 = fcmp oeq double %31, 0.000000e+00
  br label %33

33:                                               ; preds = %28, %22
  %34 = phi i1 [ true, %22 ], [ %32, %28 ]
  %35 = xor i1 %34, true
  %36 = zext i1 %35 to i32
  %37 = sitofp i32 %36 to double
  store double %37, ptr %3, align 8
  br label %107

38:                                               ; preds = %2
  %39 = load ptr, ptr %5, align 8
  %40 = load ptr, ptr %4, align 8
  %41 = call i32 @st__lookup(ptr noundef %39, ptr noundef %40, ptr noundef %13)
  %42 = icmp ne i32 %41, 0
  br i1 %42, label %43, label %47

43:                                               ; preds = %38
  %44 = load ptr, ptr %13, align 8
  %45 = load double, ptr %44, align 8
  store double %45, ptr %9, align 8
  %46 = load double, ptr %9, align 8
  store double %46, ptr %3, align 8
  br label %107

47:                                               ; preds = %38
  %48 = load ptr, ptr %6, align 8
  %49 = getelementptr inbounds %struct.DdNode, ptr %48, i32 0, i32 3
  %50 = getelementptr inbounds %struct.DdChildren, ptr %49, i32 0, i32 0
  %51 = load ptr, ptr %50, align 8
  store ptr %51, ptr %7, align 8
  %52 = load ptr, ptr %6, align 8
  %53 = getelementptr inbounds %struct.DdNode, ptr %52, i32 0, i32 3
  %54 = getelementptr inbounds %struct.DdChildren, ptr %53, i32 0, i32 1
  %55 = load ptr, ptr %54, align 8
  store ptr %55, ptr %8, align 8
  %56 = load ptr, ptr %6, align 8
  %57 = load ptr, ptr %4, align 8
  %58 = icmp ne ptr %56, %57
  br i1 %58, label %59, label %68

59:                                               ; preds = %47
  %60 = load ptr, ptr %7, align 8
  %61 = ptrtoint ptr %60 to i64
  %62 = xor i64 %61, 1
  %63 = inttoptr i64 %62 to ptr
  store ptr %63, ptr %7, align 8
  %64 = load ptr, ptr %8, align 8
  %65 = ptrtoint ptr %64 to i64
  %66 = xor i64 %65, 1
  %67 = inttoptr i64 %66 to ptr
  store ptr %67, ptr %8, align 8
  br label %68

68:                                               ; preds = %59, %47
  %69 = load ptr, ptr %7, align 8
  %70 = load ptr, ptr %5, align 8
  %71 = call double @ddCountPathsToNonZero(ptr noundef %69, ptr noundef %70)
  store double %71, ptr %11, align 8
  %72 = load double, ptr %11, align 8
  %73 = fcmp oeq double %72, -1.000000e+00
  br i1 %73, label %74, label %75

74:                                               ; preds = %68
  store double -1.000000e+00, ptr %3, align 8
  br label %107

75:                                               ; preds = %68
  %76 = load ptr, ptr %8, align 8
  %77 = load ptr, ptr %5, align 8
  %78 = call double @ddCountPathsToNonZero(ptr noundef %76, ptr noundef %77)
  store double %78, ptr %12, align 8
  %79 = load double, ptr %12, align 8
  %80 = fcmp oeq double %79, -1.000000e+00
  br i1 %80, label %81, label %82

81:                                               ; preds = %75
  store double -1.000000e+00, ptr %3, align 8
  br label %107

82:                                               ; preds = %75
  %83 = load double, ptr %11, align 8
  %84 = load double, ptr %12, align 8
  %85 = fadd double %83, %84
  store double %85, ptr %9, align 8
  %86 = call noalias ptr @malloc(i64 noundef 8) #5
  store ptr %86, ptr %10, align 8
  %87 = load ptr, ptr %10, align 8
  %88 = icmp eq ptr %87, null
  br i1 %88, label %89, label %90

89:                                               ; preds = %82
  store double -1.000000e+00, ptr %3, align 8
  br label %107

90:                                               ; preds = %82
  %91 = load double, ptr %9, align 8
  %92 = load ptr, ptr %10, align 8
  store double %91, ptr %92, align 8
  %93 = load ptr, ptr %5, align 8
  %94 = load ptr, ptr %4, align 8
  %95 = load ptr, ptr %10, align 8
  %96 = call i32 @st__add_direct(ptr noundef %93, ptr noundef %94, ptr noundef %95)
  %97 = icmp eq i32 %96, -10000
  br i1 %97, label %98, label %105

98:                                               ; preds = %90
  %99 = load ptr, ptr %10, align 8
  %100 = icmp ne ptr %99, null
  br i1 %100, label %101, label %103

101:                                              ; preds = %98
  %102 = load ptr, ptr %10, align 8
  call void @free(ptr noundef %102) #6
  store ptr null, ptr %10, align 8
  br label %104

103:                                              ; preds = %98
  br label %104

104:                                              ; preds = %103, %101
  store double -1.000000e+00, ptr %3, align 8
  br label %107

105:                                              ; preds = %90
  %106 = load double, ptr %9, align 8
  store double %106, ptr %3, align 8
  br label %107

107:                                              ; preds = %105, %104, %89, %81, %74, %43, %33
  %108 = load double, ptr %3, align 8
  ret double %108
}