; Function Attrs: nounwind uwtable
define internal fastcc double @ddCountPathsToNonZero(ptr noundef %0, ptr noundef nonnull %1) unnamed_addr #0 {
  %3 = alloca ptr, align 8
  %4 = ptrtoint ptr %0 to i64
  %5 = and i64 %4, -2
  %6 = inttoptr i64 %5 to ptr
  %7 = load i32, ptr %6, align 8
  %8 = icmp eq i32 %7, 2147483647
  br i1 %8, label %9, label %16

9:                                                ; preds = %2
  %10 = and i64 %4, 1
  %.not37 = icmp eq i64 %10, 0
  br i1 %.not37, label %11, label %45

11:                                               ; preds = %9
  %12 = getelementptr inbounds nuw i8, ptr %6, i64 16
  %13 = load double, ptr %12, align 8
  %14 = fcmp une double %13, 0.000000e+00
  %15 = uitofp i1 %14 to double
  br label %45

16:                                               ; preds = %2
  %17 = call i32 @st__lookup(ptr noundef nonnull %1, ptr noundef %0, ptr noundef nonnull %3) #23
  %.not = icmp eq i32 %17, 0
  br i1 %.not, label %21, label %18

18:                                               ; preds = %16
  %19 = load ptr, ptr %3, align 8
  %20 = load double, ptr %19, align 8
  br label %45

21:                                               ; preds = %16
  %22 = getelementptr inbounds nuw i8, ptr %6, i64 16
  %23 = load ptr, ptr %22, align 8
  %24 = getelementptr inbounds nuw i8, ptr %6, i64 24
  %25 = load ptr, ptr %24, align 8
  %.not36 = icmp eq ptr %0, %6
  %26 = ptrtoint ptr %23 to i64
  %27 = xor i64 %26, 1
  %28 = inttoptr i64 %27 to ptr
  %.031 = select i1 %.not36, ptr %23, ptr %28
  %29 = call fastcc double @ddCountPathsToNonZero(ptr noundef %.031, ptr noundef %1)
  %30 = fcmp oeq double %29, -1.000000e+00
  br i1 %30, label %45, label %31

31:                                               ; preds = %21
  %32 = ptrtoint ptr %25 to i64
  %33 = xor i64 %32, 1
  %34 = inttoptr i64 %33 to ptr
  %.032 = select i1 %.not36, ptr %25, ptr %34
  %35 = call fastcc double @ddCountPathsToNonZero(ptr noundef %.032, ptr noundef %1)
  %36 = fcmp oeq double %35, -1.000000e+00
  br i1 %36, label %45, label %37

37:                                               ; preds = %31
  %38 = call noalias dereferenceable_or_null(8) ptr @malloc(i64 noundef 8) #22
  %39 = icmp eq ptr %38, null
  br i1 %39, label %45, label %40

40:                                               ; preds = %37
  %41 = fadd double %29, %35
  store double %41, ptr %38, align 8
  %42 = call i32 @st__add_direct(ptr noundef nonnull %1, ptr noundef %0, ptr noundef nonnull %38) #23
  %43 = icmp eq i32 %42, -10000
  br i1 %43, label %44, label %45

44:                                               ; preds = %40
  call void @free(ptr noundef nonnull %38) #23
  br label %45

45:                                               ; preds = %40, %37, %31, %21, %9, %11, %44, %18
  %.0 = phi double [ %20, %18 ], [ -1.000000e+00, %44 ], [ 0.000000e+00, %9 ], [ %15, %11 ], [ -1.000000e+00, %21 ], [ -1.000000e+00, %31 ], [ -1.000000e+00, %37 ], [ %41, %40 ]
  ret double %.0
}